target datalayout = "e-m:e-p270:32:32-p271:32:32-p272:64:64-i64:64-i128:128-f80:128-n8:16:32:64-S128"
target triple = "x86_64-pc-linux-gnu"

; Function Attrs: mustprogress nounwind uwtable
define hidden void @_ZN10SerialHeap18do_full_collectionEb(ptr noundef nonnull align 8 dereferenceable(192) %0, i1 noundef zeroext %1) unnamed_addr #1 align 2 {
  %3 = alloca ptr, align 8
  %4 = alloca i8, align 1
  store ptr %0, ptr %3, align 8
  %5 = zext i1 %1 to i8
  store i8 %5, ptr %4, align 1
  %6 = load ptr, ptr %3, align 8
  %7 = call noundef zeroext i1 @_ZN8GCLocker22check_active_before_gcEv()
  br i1 %7, label %8, label %9

8:                                                ; preds = %2
  br label %12

9:                                                ; preds = %2
  %10 = load i8, ptr %4, align 1
  %11 = trunc i8 %10 to i1
  call void @_ZN10SerialHeap31do_full_collection_no_gc_lockerEb(ptr noundef nonnull align 8 dereferenceable(192) %6, i1 noundef zeroext %11)
  br label %12

12:                                               ; preds = %9, %8
  ret void
}