; Function Attrs: mustprogress nounwind uwtable
define hidden void @_ZN10SerialHeap18do_full_collectionEb(ptr noundef nonnull align 8 dereferenceable(192) %0, i1 noundef zeroext %1) unnamed_addr #0 align 2 {
  %3 = tail call noundef zeroext i1 @_ZN8GCLocker22check_active_before_gcEv() #16
  br i1 %3, label %5, label %4

4:                                                ; preds = %2
  tail call void @_ZN10SerialHeap31do_full_collection_no_gc_lockerEb(ptr noundef nonnull align 8 dereferenceable(192) %0, i1 noundef zeroext %1)
  br label %5

5:                                                ; preds = %2, %4
  ret void
}